; ModuleID = 'source-C-CXX/42/1764.cpp'
source_filename = "source-C-CXX/42/1764.cpp"
target datalayout = "e-m:e-p270:32:32-p271:32:32-p272:64:64-i64:64-f80:128-n8:16:32:64-S128"
target triple = "x86_64-pc-linux-gnu"

%"class.std::ios_base::Init" = type { i8 }
%"class.std::basic_istream" = type { i32 (...)**, i64, %"class.std::basic_ios" }
%"class.std::basic_ios" = type { %"class.std::ios_base", %"class.std::basic_ostream"*, i8, i8, %"class.std::basic_streambuf"*, %"class.std::ctype"*, %"class.std::num_put"*, %"class.std::num_get"* }
%"class.std::ios_base" = type { i32 (...)**, i64, i64, i32, i32, i32, %"struct.std::ios_base::_Callback_list"*, %"struct.std::ios_base::_Words", [8 x %"struct.std::ios_base::_Words"], i32, %"struct.std::ios_base::_Words"*, %"class.std::locale" }
%"struct.std::ios_base::_Callback_list" = type { %"struct.std::ios_base::_Callback_list"*, void (i32, %"class.std::ios_base"*, i32)*, i32, i32 }
%"struct.std::ios_base::_Words" = type { i8*, i64 }
%"class.std::locale" = type { %"class.std::locale::_Impl"* }
%"class.std::locale::_Impl" = type { i32, %"class.std::locale::facet"**, i64, %"class.std::locale::facet"**, i8** }
%"class.std::locale::facet" = type <{ i32 (...)**, i32, [4 x i8] }>
%"class.std::basic_ostream" = type { i32 (...)**, %"class.std::basic_ios" }
%"class.std::basic_streambuf" = type { i32 (...)**, i8*, i8*, i8*, i8*, i8*, i8*, %"class.std::locale" }
%"class.std::ctype" = type <{ %"class.std::locale::facet.base", [4 x i8], %struct.__locale_struct*, i8, [7 x i8], i32*, i32*, i16*, i8, [256 x i8], [256 x i8], i8, [6 x i8] }>
%"class.std::locale::facet.base" = type <{ i32 (...)**, i32 }>
%struct.__locale_struct = type { [13 x %struct.__locale_data*], i16*, i32*, i32*, [13 x i8*] }
%struct.__locale_data = type opaque
%"class.std::num_put" = type { %"class.std::locale::facet.base", [4 x i8] }
%"class.std::num_get" = type { %"class.std::locale::facet.base", [4 x i8] }

@_ZStL8__ioinit = internal global %"class.std::ios_base::Init" zeroinitializer, align 1
@__dso_handle = external hidden global i8
@_ZSt3cin = external global %"class.std::basic_istream", align 8
@_ZSt4cout = external global %"class.std::basic_ostream", align 8
@.str = private unnamed_addr constant [2 x i8] c" \00", align 1
@llvm.global_ctors = appending global [1 x { i32, void ()*, i8* }] [{ i32, void ()*, i8* } { i32 65535, void ()* @_GLOBAL__sub_I_1764.cpp, i8* null }]

declare void @_ZNSt8ios_base4InitC1Ev(%"class.std::ios_base::Init"* nonnull align 1 dereferenceable(1)) unnamed_addr #0

; Function Attrs: nounwind
declare void @_ZNSt8ios_base4InitD1Ev(%"class.std::ios_base::Init"* nonnull align 1 dereferenceable(1)) unnamed_addr #1

; Function Attrs: nofree nounwind
declare i32 @__cxa_atexit(void (i8*)*, i8*, i8*) local_unnamed_addr #2

; Function Attrs: mustprogress nofree nounwind sspstrong uwtable
define dso_local i32 @_Z2sui(i32 %0) local_unnamed_addr #3 {
  %2 = sitofp i32 %0 to double
  %3 = tail call double @sqrt(double %2) #9
  %4 = fptosi double %3 to i32
  %5 = icmp slt i32 %4, 2
  br i1 %5, label %26, label %6

6:                                                ; preds = %1
  %7 = add i32 %4, -1
  %8 = and i32 %7, 1
  %9 = icmp eq i32 %4, 2
  br i1 %9, label %12, label %10

10:                                               ; preds = %6
  %11 = and i32 %7, -2
  br label %28

12:                                               ; preds = %28, %6
  %13 = phi i32 [ undef, %6 ], [ %40, %28 ]
  %14 = phi i32 [ 2, %6 ], [ %41, %28 ]
  %15 = phi i32 [ 0, %6 ], [ %40, %28 ]
  %16 = icmp eq i32 %8, 0
  br i1 %16, label %22, label %17

17:                                               ; preds = %12
  %18 = srem i32 %0, %14
  %19 = icmp eq i32 %18, 0
  %20 = zext i1 %19 to i32
  %21 = add nuw nsw i32 %15, %20
  br label %22

22:                                               ; preds = %12, %17
  %23 = phi i32 [ %13, %12 ], [ %21, %17 ]
  %24 = icmp eq i32 %23, 0
  %25 = zext i1 %24 to i32
  br label %26

26:                                               ; preds = %22, %1
  %27 = phi i32 [ 1, %1 ], [ %25, %22 ]
  ret i32 %27

28:                                               ; preds = %28, %10
  %29 = phi i32 [ 2, %10 ], [ %41, %28 ]
  %30 = phi i32 [ 0, %10 ], [ %40, %28 ]
  %31 = phi i32 [ %11, %10 ], [ %42, %28 ]
  %32 = srem i32 %0, %29
  %33 = icmp eq i32 %32, 0
  %34 = zext i1 %33 to i32
  %35 = add nuw nsw i32 %30, %34
  %36 = or i32 %29, 1
  %37 = srem i32 %0, %36
  %38 = icmp eq i32 %37, 0
  %39 = zext i1 %38 to i32
  %40 = add nuw nsw i32 %35, %39
  %41 = add nuw i32 %29, 2
  %42 = add i32 %31, -2
  %43 = icmp eq i32 %42, 0
  br i1 %43, label %12, label %28, !llvm.loop !5
}

; Function Attrs: argmemonly mustprogress nofree nosync nounwind willreturn
declare void @llvm.lifetime.start.p0i8(i64 immarg, i8* nocapture) #4

; Function Attrs: argmemonly mustprogress nofree nosync nounwind willreturn
declare void @llvm.lifetime.end.p0i8(i64 immarg, i8* nocapture) #4

; Function Attrs: mustprogress norecurse sspstrong uwtable
define dso_local i32 @main() local_unnamed_addr #5 {
  %1 = alloca i32, align 4
  %2 = bitcast i32* %1 to i8*
  call void @llvm.lifetime.start.p0i8(i64 4, i8* nonnull %2) #9
  %3 = call nonnull align 8 dereferenceable(16) %"class.std::basic_istream"* @_ZNSirsERi(%"class.std::basic_istream"* nonnull align 8 dereferenceable(16) @_ZSt3cin, i32* nonnull align 4 dereferenceable(4) %1)
  %4 = load i32, i32* %1, align 4, !tbaa !7
  %5 = icmp slt i32 %4, 0
  br i1 %5, label %6, label %7

6:                                                ; preds = %131, %0
  call void @llvm.lifetime.end.p0i8(i64 4, i8* nonnull %2) #9
  ret i32 0

7:                                                ; preds = %0, %131
  %8 = phi i32 [ %132, %131 ], [ 1, %0 ]
  %9 = shl nuw nsw i32 %8, 1
  %10 = or i32 %9, 1
  %11 = sitofp i32 %10 to double
  %12 = call double @sqrt(double %11) #9
  %13 = fptosi double %12 to i32
  %14 = icmp slt i32 %13, 2
  br i1 %14, label %50, label %15

15:                                               ; preds = %7
  %16 = add i32 %13, -1
  %17 = and i32 %16, 1
  %18 = icmp eq i32 %13, 2
  br i1 %18, label %37, label %19

19:                                               ; preds = %15
  %20 = and i32 %16, -2
  br label %21

21:                                               ; preds = %21, %19
  %22 = phi i32 [ 2, %19 ], [ %34, %21 ]
  %23 = phi i32 [ 0, %19 ], [ %33, %21 ]
  %24 = phi i32 [ %20, %19 ], [ %35, %21 ]
  %25 = urem i32 %10, %22
  %26 = icmp eq i32 %25, 0
  %27 = zext i1 %26 to i32
  %28 = add nuw nsw i32 %23, %27
  %29 = or i32 %22, 1
  %30 = urem i32 %10, %29
  %31 = icmp eq i32 %30, 0
  %32 = zext i1 %31 to i32
  %33 = add nuw nsw i32 %28, %32
  %34 = add nuw i32 %22, 2
  %35 = add i32 %24, -2
  %36 = icmp eq i32 %35, 0
  br i1 %36, label %37, label %21, !llvm.loop !5

37:                                               ; preds = %21, %15
  %38 = phi i32 [ undef, %15 ], [ %33, %21 ]
  %39 = phi i32 [ 2, %15 ], [ %34, %21 ]
  %40 = phi i32 [ 0, %15 ], [ %33, %21 ]
  %41 = icmp eq i32 %17, 0
  br i1 %41, label %47, label %42

42:                                               ; preds = %37
  %43 = urem i32 %10, %39
  %44 = icmp eq i32 %43, 0
  %45 = zext i1 %44 to i32
  %46 = add nuw nsw i32 %40, %45
  br label %47

47:                                               ; preds = %37, %42
  %48 = phi i32 [ %38, %37 ], [ %46, %42 ]
  %49 = icmp eq i32 %48, 0
  br i1 %49, label %50, label %131

50:                                               ; preds = %7, %47
  %51 = load i32, i32* %1, align 4, !tbaa !7
  %52 = sub nsw i32 %51, %10
  %53 = sitofp i32 %52 to double
  %54 = call double @sqrt(double %53) #9
  %55 = fptosi double %54 to i32
  %56 = icmp slt i32 %55, 2
  br i1 %56, label %92, label %57

57:                                               ; preds = %50
  %58 = add i32 %55, -1
  %59 = and i32 %58, 1
  %60 = icmp eq i32 %55, 2
  br i1 %60, label %79, label %61

61:                                               ; preds = %57
  %62 = and i32 %58, -2
  br label %63

63:                                               ; preds = %63, %61
  %64 = phi i32 [ 2, %61 ], [ %76, %63 ]
  %65 = phi i32 [ 0, %61 ], [ %75, %63 ]
  %66 = phi i32 [ %62, %61 ], [ %77, %63 ]
  %67 = srem i32 %52, %64
  %68 = icmp eq i32 %67, 0
  %69 = zext i1 %68 to i32
  %70 = add nuw nsw i32 %65, %69
  %71 = or i32 %64, 1
  %72 = srem i32 %52, %71
  %73 = icmp eq i32 %72, 0
  %74 = zext i1 %73 to i32
  %75 = add nuw nsw i32 %70, %74
  %76 = add nuw i32 %64, 2
  %77 = add i32 %66, -2
  %78 = icmp eq i32 %77, 0
  br i1 %78, label %79, label %63, !llvm.loop !5

79:                                               ; preds = %63, %57
  %80 = phi i32 [ undef, %57 ], [ %75, %63 ]
  %81 = phi i32 [ 2, %57 ], [ %76, %63 ]
  %82 = phi i32 [ 0, %57 ], [ %75, %63 ]
  %83 = icmp eq i32 %59, 0
  br i1 %83, label %89, label %84

84:                                               ; preds = %79
  %85 = srem i32 %52, %81
  %86 = icmp eq i32 %85, 0
  %87 = zext i1 %86 to i32
  %88 = add nuw nsw i32 %82, %87
  br label %89

89:                                               ; preds = %79, %84
  %90 = phi i32 [ %80, %79 ], [ %88, %84 ]
  %91 = icmp eq i32 %90, 0
  br i1 %91, label %92, label %131

92:                                               ; preds = %50, %89
  %93 = load i32, i32* %1, align 4, !tbaa !7
  %94 = sub nsw i32 %93, %10
  %95 = icmp sgt i32 %10, %94
  br i1 %95, label %131, label %96

96:                                               ; preds = %92
  %97 = call nonnull align 8 dereferenceable(8) %"class.std::basic_ostream"* @_ZNSolsEi(%"class.std::basic_ostream"* nonnull align 8 dereferenceable(8) @_ZSt4cout, i32 %10)
  %98 = call nonnull align 8 dereferenceable(8) %"class.std::basic_ostream"* @_ZSt16__ostream_insertIcSt11char_traitsIcEERSt13basic_ostreamIT_T0_ES6_PKS3_l(%"class.std::basic_ostream"* nonnull align 8 dereferenceable(8) %97, i8* nonnull getelementptr inbounds ([2 x i8], [2 x i8]* @.str, i64 0, i64 0), i64 1)
  %99 = load i32, i32* %1, align 4, !tbaa !7
  %100 = sub nsw i32 %99, %10
  %101 = call nonnull align 8 dereferenceable(8) %"class.std::basic_ostream"* @_ZNSolsEi(%"class.std::basic_ostream"* nonnull align 8 dereferenceable(8) %97, i32 %100)
  %102 = bitcast %"class.std::basic_ostream"* %101 to i8**
  %103 = load i8*, i8** %102, align 8, !tbaa !11
  %104 = getelementptr i8, i8* %103, i64 -24
  %105 = bitcast i8* %104 to i64*
  %106 = load i64, i64* %105, align 8
  %107 = bitcast %"class.std::basic_ostream"* %101 to i8*
  %108 = add nsw i64 %106, 240
  %109 = getelementptr inbounds i8, i8* %107, i64 %108
  %110 = bitcast i8* %109 to %"class.std::ctype"**
  %111 = load %"class.std::ctype"*, %"class.std::ctype"** %110, align 8, !tbaa !13
  %112 = icmp eq %"class.std::ctype"* %111, null
  br i1 %112, label %113, label %114

113:                                              ; preds = %96
  call void @_ZSt16__throw_bad_castv() #10
  unreachable

114:                                              ; preds = %96
  %115 = getelementptr inbounds %"class.std::ctype", %"class.std::ctype"* %111, i64 0, i32 8
  %116 = load i8, i8* %115, align 8, !tbaa !17
  %117 = icmp eq i8 %116, 0
  br i1 %117, label %121, label %118

118:                                              ; preds = %114
  %119 = getelementptr inbounds %"class.std::ctype", %"class.std::ctype"* %111, i64 0, i32 9, i64 10
  %120 = load i8, i8* %119, align 1, !tbaa !19
  br label %127

121:                                              ; preds = %114
  call void @_ZNKSt5ctypeIcE13_M_widen_initEv(%"class.std::ctype"* nonnull align 8 dereferenceable(570) %111)
  %122 = bitcast %"class.std::ctype"* %111 to i8 (%"class.std::ctype"*, i8)***
  %123 = load i8 (%"class.std::ctype"*, i8)**, i8 (%"class.std::ctype"*, i8)*** %122, align 8, !tbaa !11
  %124 = getelementptr inbounds i8 (%"class.std::ctype"*, i8)*, i8 (%"class.std::ctype"*, i8)** %123, i64 6
  %125 = load i8 (%"class.std::ctype"*, i8)*, i8 (%"class.std::ctype"*, i8)** %124, align 8
  %126 = call signext i8 %125(%"class.std::ctype"* nonnull align 8 dereferenceable(570) %111, i8 signext 10)
  br label %127

127:                                              ; preds = %118, %121
  %128 = phi i8 [ %120, %118 ], [ %126, %121 ]
  %129 = call nonnull align 8 dereferenceable(8) %"class.std::basic_ostream"* @_ZNSo3putEc(%"class.std::basic_ostream"* nonnull align 8 dereferenceable(8) %101, i8 signext %128)
  %130 = call nonnull align 8 dereferenceable(8) %"class.std::basic_ostream"* @_ZNSo5flushEv(%"class.std::basic_ostream"* nonnull align 8 dereferenceable(8) %129)
  br label %131

131:                                              ; preds = %127, %92, %89, %47
  %132 = add nuw nsw i32 %8, 1
  %133 = load i32, i32* %1, align 4, !tbaa !7
  %134 = add nsw i32 %133, 4
  %135 = sdiv i32 %134, 4
  %136 = icmp slt i32 %8, %135
  br i1 %136, label %7, label %6, !llvm.loop !20
}

declare nonnull align 8 dereferenceable(16) %"class.std::basic_istream"* @_ZNSirsERi(%"class.std::basic_istream"* nonnull align 8 dereferenceable(16), i32* nonnull align 4 dereferenceable(4)) local_unnamed_addr #0

declare nonnull align 8 dereferenceable(8) %"class.std::basic_ostream"* @_ZNSolsEi(%"class.std::basic_ostream"* nonnull align 8 dereferenceable(8), i32) local_unnamed_addr #0

; Function Attrs: mustprogress nofree nounwind willreturn
declare double @sqrt(double) local_unnamed_addr #6

declare nonnull align 8 dereferenceable(8) %"class.std::basic_ostream"* @_ZSt16__ostream_insertIcSt11char_traitsIcEERSt13basic_ostreamIT_T0_ES6_PKS3_l(%"class.std::basic_ostream"* nonnull align 8 dereferenceable(8), i8*, i64) local_unnamed_addr #0

declare nonnull align 8 dereferenceable(8) %"class.std::basic_ostream"* @_ZNSo3putEc(%"class.std::basic_ostream"* nonnull align 8 dereferenceable(8), i8 signext) local_unnamed_addr #0

declare nonnull align 8 dereferenceable(8) %"class.std::basic_ostream"* @_ZNSo5flushEv(%"class.std::basic_ostream"* nonnull align 8 dereferenceable(8)) local_unnamed_addr #0

; Function Attrs: noreturn
declare void @_ZSt16__throw_bad_castv() local_unnamed_addr #7

declare void @_ZNKSt5ctypeIcE13_M_widen_initEv(%"class.std::ctype"* nonnull align 8 dereferenceable(570)) local_unnamed_addr #0

; Function Attrs: sspstrong uwtable
define internal void @_GLOBAL__sub_I_1764.cpp() #8 section ".text.startup" {
  tail call void @_ZNSt8ios_base4InitC1Ev(%"class.std::ios_base::Init"* nonnull align 1 dereferenceable(1) @_ZStL8__ioinit)
  %1 = tail call i32 @__cxa_atexit(void (i8*)* bitcast (void (%"class.std::ios_base::Init"*)* @_ZNSt8ios_base4InitD1Ev to void (i8*)*), i8* getelementptr inbounds (%"class.std::ios_base::Init", %"class.std::ios_base::Init"* @_ZStL8__ioinit, i64 0, i32 0), i8* nonnull @__dso_handle) #9
  ret void
}


!llvm.module.flags = !{!0, !1, !2, !3}
!llvm.ident = !{!4}

!0 = !{i32 1, !"wchar_size", i32 4}
!1 = !{i32 7, !"PIC Level", i32 2}
!2 = !{i32 7, !"PIE Level", i32 2}
!3 = !{i32 7, !"uwtable", i32 1}
!4 = !{!"clang version 13.0.0"}
!5 = distinct !{!5, !6}
!6 = !{!"llvm.loop.mustprogress"}
!7 = !{!8, !8, i64 0}
!8 = !{!"int", !9, i64 0}
!9 = !{!"omnipotent char", !10, i64 0}
!10 = !{!"Simple C++ TBAA"}
!11 = !{!12, !12, i64 0}
!12 = !{!"vtable pointer", !10, i64 0}
!13 = !{!14, !15, i64 240}
!14 = !{!"_ZTSSt9basic_iosIcSt11char_traitsIcEE", !15, i64 216, !9, i64 224, !16, i64 225, !15, i64 232, !15, i64 240, !15, i64 248, !15, i64 256}
!15 = !{!"any pointer", !9, i64 0}
!16 = !{!"bool", !9, i64 0}
!17 = !{!18, !9, i64 56}
!18 = !{!"_ZTSSt5ctypeIcE", !15, i64 16, !16, i64 24, !15, i64 32, !15, i64 40, !15, i64 48, !9, i64 56, !9, i64 57, !9, i64 313, !9, i64 569}
!19 = !{!9, !9, i64 0}
!20 = distinct !{!20, !6}
